Certificate:
    Data:
        Version: 3 (0x2)
        Serial Number:
            fe:9f:99:56:16:4b:1e:12
        Signature Algorithm: sha1WithRSAEncryption
        Issuer: C=DE, ST=Berlin, O=testCloud.de GmbH, CN=Max
        Validity
            Not Before: May 25 15:34:56 2012 GMT
            Not After : May 25 15:34:56 2013 GMT
        Subject: C=DE, ST=Some-State, L=Berlin, O=testCloud.de GmbH, CN=Max
        Subject Public Key Info:
            Public Key Algorithm: rsaEncryption
            RSA Public Key: (1024 bit)
                Modulus (1024 bit):
                    00:97:57:63:3c:de:f0:a8:87:c4:0c:ac:99:42:57:
                    08:13:08:f7:82:44:c0:11:f6:8a:f3:73:18:02:51:
                    e3:d7:74:a6:85:99:1c:6c:83:ed:b9:c3:39:06:4b:
                    1a:ad:d4:39:03:71:c0:01:be:c2:4f:fb:ff:dc:0f:
                    20:f5:88:26:a3:c0:02:b6:8f:89:92:bb:47:5b:6d:
                    5d:5e:28:72:39:a4:a6:4d:ee:45:8a:6a:e3:cc:c5:
                    d3:9d:4d:4f:83:79:cd:de:04:bd:c2:dc:94:2d:33:
                    d9:75:8d:8f:05:f3:63:4c:4e:8f:40:88:14:52:c8:
                    f2:f0:ec:12:b5:55:a0:f3:d5
                Exponent: 65537 (0x10001)
        X509v3 extensions:
            X509v3 Basic Constraints: 
                CA:FALSE
            Netscape Comment: 
                OpenSSL Generated Certificate
            X509v3 Subject Key Identifier: 
                ED:63:60:60:87:2B:30:CA:58:6E:DA:7B:48:19:90:02:51:BC:A1:63
            X509v3 Authority Key Identifier: 
                keyid:F9:12:68:6C:E9:84:F5:1A:00:11:B5:4F:46:6A:C6:B5:48:D9:2F:CD

    Signature Algorithm: sha1WithRSAEncryption
        1a:5a:e0:08:a8:a2:96:19:68:85:29:99:b8:8a:a4:73:59:ce:
        77:5e:c0:c2:0c:8c:8f:00:53:11:4b:13:37:bd:da:96:04:83:
        7f:2c:81:97:f3:5f:75:8b:60:30:b1:9b:2e:a9:a3:8d:f3:e3:
        67:d4:9f:0c:4d:16:21:60:b5:7e:29:df:99:70:2a:db:9e:e5:
        03:56:aa:e3:61:72:4f:7a:33:6f:2c:4e:3d:23:42:7c:e2:86:
        f3:f3:ed:d5:a1:af:a1:5c:a3:70:c1:43:bc:e9:ce:df:60:e7:
        25:a6:82:57:c9:88:1e:47:01:5a:8a:68:59:30:02:bb:c0:d7:
        08:66
-----BEGIN CERTIFICATE-----
MIICnjCCAgegAwIBAgIJAP6fmVYWSx4SMA0GCSqGSIb3DQEBBQUAMEgxCzAJBgNV
BAYTAkRFMQ8wDQYDVQQIEwZCZXJsaW4xGjAYBgNVBAoTEXRlc3RDbG91ZC5kZSBH
bWJIMQwwCgYDVQQDEwNNYXgwHhcNMTIwNTI1MTUzNDU2WhcNMTMwNTI1MTUzNDU2
WjBdMQswCQYDVQQGEwJERTETMBEGA1UECBMKU29tZS1TdGF0ZTEPMA0GA1UEBxMG
QmVybGluMRowGAYDVQQKExF0ZXN0Q2xvdWQuZGUgR21iSDEMMAoGA1UEAxMDTWF4
MIGfMA0GCSqGSIb3DQEBAQUAA4GNADCBiQKBgQCXV2M83vCoh8QMrJlCVwgTCPeC
RMAR9orzcxgCUePXdKaFmRxsg+25wzkGSxqt1DkDccABvsJP+//cDyD1iCajwAK2
j4mSu0dbbV1eKHI5pKZN7kWKauPMxdOdTU+Dec3eBL3C3JQtM9l1jY8F82NMTo9A
iBRSyPLw7BK1VaDz1QIDAQABo3sweTAJBgNVHRMEAjAAMCwGCWCGSAGG+EIBDQQf
Fh1PcGVuU1NMIEdlbmVyYXRlZCBDZXJ0aWZpY2F0ZTAdBgNVHQ4EFgQU7WNgYIcr
MMpYbtp7SBmQAlG8oWMwHwYDVR0jBBgwFoAU+RJobOmE9RoAEbVPRmrGtUjZL80w
DQYJKoZIhvcNAQEFBQADgYEAGlrgCKiilhlohSmZuIqkc1nOd17AwgyMjwBTEUsT
N73algSDfyyBl/NfdYtgMLGbLqmjjfPjZ9SfDE0WIWC1finfmXAq257lA1aq42Fy
T3ozbyxOPSNCfOKG8/Pt1aGvoVyjcMFDvOnO32DnJaaCV8mIHkcBWopoWTACu8DX
CGY=
-----END CERTIFICATE-----
