Certificate:
    Data:
        Version: 3 (0x2)
        Serial Number:
            fe:9f:99:56:16:4b:1e:11
        Signature Algorithm: sha1WithRSAEncryption
        Issuer: C=DE, ST=Berlin, O=testCloud.de GmbH, CN=Max
        Validity
            Not Before: May 25 15:34:33 2012 GMT
            Not After : May 25 15:34:33 2015 GMT
        Subject: C=DE, ST=Berlin, O=testCloud.de GmbH, CN=Max
        Subject Public Key Info:
            Public Key Algorithm: rsaEncryption
            RSA Public Key: (1024 bit)
                Modulus (1024 bit):
                    00:d4:5e:9b:d3:6b:93:0f:71:0e:41:1a:68:ed:42:
                    25:be:58:6e:77:0e:eb:01:e5:0e:e2:5b:e6:fb:f9:
                    18:5a:3a:ae:2e:cf:3e:c9:94:1b:13:89:3d:3b:bd:
                    77:ca:89:5d:6a:cf:8d:f2:7e:a6:3d:33:60:b8:ca:
                    28:4b:fd:a7:2c:91:c1:ab:cd:d5:81:63:97:e1:64:
                    60:11:a7:7e:d5:f7:57:8c:3a:be:2e:db:ff:f8:94:
                    19:25:98:24:dd:52:48:bd:70:52:fc:c7:4a:cc:1c:
                    b6:57:24:f8:7f:69:d7:bd:b0:fa:92:f1:a6:c3:4e:
                    61:cd:36:f6:ec:b3:7a:5f:f5
                Exponent: 65537 (0x10001)
        X509v3 extensions:
            X509v3 Subject Key Identifier: 
                F9:12:68:6C:E9:84:F5:1A:00:11:B5:4F:46:6A:C6:B5:48:D9:2F:CD
            X509v3 Authority Key Identifier: 
                keyid:F9:12:68:6C:E9:84:F5:1A:00:11:B5:4F:46:6A:C6:B5:48:D9:2F:CD
                DirName:/C=DE/ST=Berlin/O=testCloud.de GmbH/CN=Max
                serial:FE:9F:99:56:16:4B:1E:11

            X509v3 Basic Constraints: 
                CA:TRUE
    Signature Algorithm: sha1WithRSAEncryption
        09:fd:2b:5b:d2:46:ed:17:c5:51:1e:96:d8:c1:61:38:65:bd:
        3b:b3:91:f4:7f:a5:e8:8b:95:c6:28:1b:8d:36:cf:43:27:8a:
        b4:5f:ba:34:20:41:c5:b2:0c:5b:8d:a7:f4:57:36:2e:24:c2:
        e7:26:f2:90:6c:0b:e9:66:b3:57:5c:d3:fb:3a:5b:21:5f:fa:
        37:57:fa:b1:26:17:74:5b:da:6d:56:13:55:ae:dd:b7:eb:1b:
        a7:1e:ec:66:e0:36:27:3f:4c:4a:e2:79:1e:ed:d6:d5:a6:8c:
        84:91:cc:a1:10:90:b2:d2:0d:78:3f:5a:41:75:18:dd:c3:10:
        d4:2b
-----BEGIN CERTIFICATE-----
MIICuTCCAiKgAwIBAgIJAP6fmVYWSx4RMA0GCSqGSIb3DQEBBQUAMEgxCzAJBgNV
BAYTAkRFMQ8wDQYDVQQIEwZCZXJsaW4xGjAYBgNVBAoTEXRlc3RDbG91ZC5kZSBH
bWJIMQwwCgYDVQQDEwNNYXgwHhcNMTIwNTI1MTUzNDMzWhcNMTUwNTI1MTUzNDMz
WjBIMQswCQYDVQQGEwJERTEPMA0GA1UECBMGQmVybGluMRowGAYDVQQKExF0ZXN0
Q2xvdWQuZGUgR21iSDEMMAoGA1UEAxMDTWF4MIGfMA0GCSqGSIb3DQEBAQUAA4GN
ADCBiQKBgQDUXpvTa5MPcQ5BGmjtQiW+WG53DusB5Q7iW+b7+RhaOq4uzz7JlBsT
iT07vXfKiV1qz43yfqY9M2C4yihL/acskcGrzdWBY5fhZGARp37V91eMOr4u2//4
lBklmCTdUki9cFL8x0rMHLZXJPh/ade9sPqS8abDTmHNNvbss3pf9QIDAQABo4Gq
MIGnMB0GA1UdDgQWBBT5Emhs6YT1GgARtU9Gasa1SNkvzTB4BgNVHSMEcTBvgBT5
Emhs6YT1GgARtU9Gasa1SNkvzaFMpEowSDELMAkGA1UEBhMCREUxDzANBgNVBAgT
BkJlcmxpbjEaMBgGA1UEChMRdGVzdENsb3VkLmRlIEdtYkgxDDAKBgNVBAMTA01h
eIIJAP6fmVYWSx4RMAwGA1UdEwQFMAMBAf8wDQYJKoZIhvcNAQEFBQADgYEACf0r
W9JG7RfFUR6W2MFhOGW9O7OR9H+l6IuVxigbjTbPQyeKtF+6NCBBxbIMW42n9Fc2
LiTC5ybykGwL6WazV1zT+zpbIV/6N1f6sSYXdFvabVYTVa7dt+sbpx7sZuA2Jz9M
SuJ5Hu3W1aaMhJHMoRCQstINeD9aQXUY3cMQ1Cs=
-----END CERTIFICATE-----
